; Function Attrs: nounwind sspstrong uwtable
define internal noundef i64 @pty_close_pty(i64 noundef %0) #0 {
  br label %2

2:                                                ; preds = %1, %rbimpl_RB_TYPE_P_fastpath.exit.thread
  %3 = phi i1 [ true, %1 ], [ false, %rbimpl_RB_TYPE_P_fastpath.exit.thread ]
  %indvars.iv = phi i64 [ 0, %1 ], [ 1, %rbimpl_RB_TYPE_P_fastpath.exit.thread ]
  %4 = tail call i64 @rb_ary_entry(i64 noundef %0, i64 noundef %indvars.iv) #13
  %5 = icmp eq i64 %4, 0
  %6 = and i64 %4, 7
  %7 = icmp ne i64 %6, 0
  %8 = or i1 %5, %7
  br i1 %8, label %rbimpl_RB_TYPE_P_fastpath.exit.thread, label %rbimpl_RB_TYPE_P_fastpath.exit

rbimpl_RB_TYPE_P_fastpath.exit:                   ; preds = %2
  %9 = inttoptr i64 %4 to ptr
  %10 = load i64, ptr %9, align 8, !tbaa !35
  %11 = and i64 %10, 31
  %12 = icmp eq i64 %11, 11
  br i1 %12, label %13, label %rbimpl_RB_TYPE_P_fastpath.exit.thread

13:                                               ; preds = %rbimpl_RB_TYPE_P_fastpath.exit
  %14 = tail call i64 @rb_io_close(i64 noundef %4) #10
  br label %rbimpl_RB_TYPE_P_fastpath.exit.thread

rbimpl_RB_TYPE_P_fastpath.exit.thread:            ; preds = %2, %rbimpl_RB_TYPE_P_fastpath.exit, %13
  br i1 %3, label %2, label %15, !llvm.loop !37

15:                                               ; preds = %rbimpl_RB_TYPE_P_fastpath.exit.thread
  ret i64 4
}